target datalayout = "e-m:e-p270:32:32-p271:32:32-p272:64:64-i64:64-i128:128-f80:128-n8:16:32:64-S128"
target triple = "x86_64-pc-linux-gnu"

%"class.clang::ento::SubRegion" = type { %"class.clang::ento::MemRegion", ptr }
%"class.clang::ento::MemRegion" = type { ptr, %"class.llvm::FoldingSetBase::Node", i32, [4 x i8], %"class.std::optional" }
%"class.llvm::FoldingSetBase::Node" = type { ptr }
%"class.std::optional" = type { %"struct.std::_Optional_base" }
%"struct.std::_Optional_base" = type { %"struct.std::_Optional_payload" }
%"struct.std::_Optional_payload" = type { %"struct.std::_Optional_payload_base.base", [7 x i8] }
%"struct.std::_Optional_payload_base.base" = type <{ %"union.std::_Optional_payload_base<clang::ento::RegionOffset>::_Storage", i8 }>
%"union.std::_Optional_payload_base<clang::ento::RegionOffset>::_Storage" = type { %"class.clang::ento::RegionOffset" }
%"class.clang::ento::RegionOffset" = type { ptr, i64 }
%"class.clang::ento::TypedValueRegion" = type { %"class.clang::ento::TypedRegion" }
%"class.clang::ento::TypedRegion" = type { %"class.clang::ento::SubRegion" }
%"class.clang::QualType" = type { %"class.llvm::PointerIntPair" }
%"class.llvm::PointerIntPair" = type { %"struct.llvm::detail::PunnedPointer" }
%"struct.llvm::detail::PunnedPointer" = type { [8 x i8] }
%"class.clang::ento::SVal" = type <{ ptr, i8, [7 x i8] }>
%"class.clang::ento::ElementRegion" = type { %"class.clang::ento::TypedValueRegion", %"class.clang::QualType", %"class.clang::ento::NonLoc" }
%"class.clang::ento::NonLoc" = type { %"class.clang::ento::DefinedSVal.base", [7 x i8] }
%"class.clang::ento::DefinedSVal.base" = type { %"class.clang::ento::DefinedOrUnknownSVal.base" }
%"class.clang::ento::DefinedOrUnknownSVal.base" = type { %"class.clang::ento::SVal.base" }
%"class.clang::ento::SVal.base" = type <{ ptr, i8 }>

; Function Attrs: mustprogress nounwind uwtable
define dso_local void @_ZNK5clang4ento13ElementRegion7ProfileERN4llvm16FoldingSetNodeIDE(ptr noundef nonnull align 8 dereferenceable(80) %0, ptr noundef nonnull align 8 dereferenceable(144) %1) unnamed_addr #0 align 2 {
  %3 = alloca ptr, align 8
  %4 = alloca ptr, align 8
  %5 = alloca %"class.clang::QualType", align 8
  %6 = alloca %"class.clang::ento::SVal", align 8
  store ptr %0, ptr %3, align 8
  store ptr %1, ptr %4, align 8
  %7 = load ptr, ptr %3, align 8
  %8 = load ptr, ptr %4, align 8
  %9 = getelementptr inbounds nuw %"class.clang::ento::ElementRegion", ptr %7, i32 0, i32 1
  call void @llvm.memcpy.p0.p0.i64(ptr align 8 %5, ptr align 8 %9, i64 8, i1 false)
  %10 = getelementptr inbounds nuw %"class.clang::ento::ElementRegion", ptr %7, i32 0, i32 2
  call void @llvm.memcpy.p0.p0.i64(ptr align 8 %6, ptr align 8 %10, i64 16, i1 false)
  %11 = getelementptr inbounds nuw %"class.clang::ento::SubRegion", ptr %7, i32 0, i32 1
  %12 = load ptr, ptr %11, align 8
  %13 = getelementptr inbounds nuw %"class.clang::QualType", ptr %5, i32 0, i32 0
  %14 = getelementptr inbounds nuw %"class.llvm::PointerIntPair", ptr %13, i32 0, i32 0
  %15 = getelementptr inbounds nuw %"struct.llvm::detail::PunnedPointer", ptr %14, i32 0, i32 0
  %16 = load i64, ptr %15, align 8
  %17 = getelementptr inbounds nuw { ptr, i8 }, ptr %6, i32 0, i32 0
  %18 = load ptr, ptr %17, align 8
  %19 = getelementptr inbounds nuw { ptr, i8 }, ptr %6, i32 0, i32 1
  %20 = load i8, ptr %19, align 8
  call void @_ZN5clang4ento13ElementRegion13ProfileRegionERN4llvm16FoldingSetNodeIDENS_8QualTypeENS0_4SValEPKNS0_9MemRegionE(ptr noundef nonnull align 8 dereferenceable(144) %8, i64 %16, ptr %18, i8 %20, ptr noundef %12)
  ret void
}