; Function Attrs: mustprogress nounwind uwtable
define dso_local void @_ZNK5clang4ento13ElementRegion7ProfileERN4llvm16FoldingSetNodeIDE(ptr nocapture noundef nonnull readonly align 8 dereferenceable(80) %0, ptr noundef nonnull align 8 dereferenceable(144) %1) unnamed_addr #3 align 2 {
  %3 = getelementptr inbounds nuw i8, ptr %0, i64 56
  %.sroa.01.0.copyload = load i64, ptr %3, align 8
  %4 = getelementptr inbounds nuw i8, ptr %0, i64 64
  %.sroa.0.0.copyload = load ptr, ptr %4, align 8
  %.sroa.2.0..sroa_idx = getelementptr inbounds i8, ptr %0, i64 72
  %.sroa.2.0.copyload = load i8, ptr %.sroa.2.0..sroa_idx, align 8
  %5 = getelementptr inbounds nuw i8, ptr %0, i64 48
  %6 = load ptr, ptr %5, align 8
  tail call void @_ZN5clang4ento13ElementRegion13ProfileRegionERN4llvm16FoldingSetNodeIDENS_8QualTypeENS0_4SValEPKNS0_9MemRegionE(ptr noundef nonnull align 8 dereferenceable(144) %1, i64 %.sroa.01.0.copyload, ptr %.sroa.0.0.copyload, i8 %.sroa.2.0.copyload, ptr noundef %6)
  ret void
}